; Function Attrs: mustprogress uwtable
define void @_ZN11UatDelegate14pathHasChangedE7QString(ptr noundef nonnull align 8 dereferenceable(16) %0, ptr nocapture readnone %1) #0 align 2 {
  %3 = tail call noundef ptr @_ZNK7QObject6senderEv(ptr noundef nonnull align 8 dereferenceable(16) %0)
  %4 = tail call noundef ptr @_ZNK11QMetaObject4castEPK7QObject(ptr noundef nonnull align 8 dereferenceable(56) @_ZN17PathSelectionEdit16staticMetaObjectE, ptr noundef %3)
  %.not = icmp eq ptr %4, null
  br i1 %.not, label %6, label %5

5:                                                ; preds = %2
  tail call void @_ZN21QAbstractItemDelegate10commitDataEP7QWidget(ptr noundef nonnull align 8 dereferenceable(16) %0, ptr noundef nonnull %4)
  br label %6

6:                                                ; preds = %5, %2
  ret void
}